target datalayout = "e-m:e-p270:32:32-p271:32:32-p272:64:64-i64:64-i128:128-f80:128-n8:16:32:64-S128"
target triple = "x86_64-pc-linux-gnu"

%struct.LogOpts = type { ptr, i8, i8, ptr, ptr, ptr, ptr, i8 }

@log_opts = dso_local global %struct.LogOpts zeroinitializer, align 8
@.str.2 = private unnamed_addr constant [1 x i8] zeroinitializer, align 1
@.str.4 = private unnamed_addr constant [18 x i8] c"Failure, exiting\0A\00", align 1
@.str.6 = private unnamed_addr constant [3 x i8] c"%s\00", align 1
@.str.7 = private unnamed_addr constant [6 x i8] c"  %s\0A\00", align 1
@.str.8 = private unnamed_addr constant [4 x i8] c"%s\0A\00", align 1
@.str.9 = private unnamed_addr constant [12 x i8] c"  %s%-*.*s\0D\00", align 1
@.str.10 = private unnamed_addr constant [4 x i8] c"...\00", align 1
@.str.11 = private unnamed_addr constant [5 x i8] c"\0A%s\0A\00", align 1
@stdout = external global ptr, align 8

; Function Attrs: nounwind uwtable
define internal void @pg_log_v(i32 noundef %0, ptr noundef %1, ptr noundef %2) #0 {
  %4 = alloca i32, align 4
  %5 = alloca ptr, align 8
  %6 = alloca ptr, align 8
  %7 = alloca [8192 x i8], align 16
  %8 = alloca i8, align 1
  store i32 %0, ptr %4, align 4
  store ptr %1, ptr %5, align 8
  store ptr %2, ptr %6, align 8
  call void @llvm.lifetime.start.p0(i64 8192, ptr %7) #8
  %9 = getelementptr inbounds [8192 x i8], ptr %7, i64 0, i64 0
  %10 = load ptr, ptr %5, align 8
  %11 = load ptr, ptr %6, align 8
  %12 = call i32 @pg_vsnprintf(ptr noundef %9, i64 noundef 8192, ptr noundef %10, ptr noundef %11)
  %13 = load i32, ptr %4, align 4
  %14 = icmp ne i32 %13, 0
  br i1 %14, label %15, label %18

15:                                               ; preds = %3
  %16 = load i32, ptr %4, align 4
  %17 = icmp ne i32 %16, 1
  br i1 %17, label %21, label %18

18:                                               ; preds = %15, %3
  %19 = load i8, ptr getelementptr inbounds nuw (%struct.LogOpts, ptr @log_opts, i32 0, i32 1), align 8, !range !4, !noundef !5
  %20 = trunc i8 %19 to i1
  br i1 %20, label %21, label %46

21:                                               ; preds = %18, %15
  %22 = load ptr, ptr @log_opts, align 8
  %23 = icmp ne ptr %22, null
  br i1 %23, label %24, label %46

24:                                               ; preds = %21
  %25 = load i32, ptr %4, align 4
  %26 = icmp eq i32 %25, 1
  br i1 %26, label %27, label %31

27:                                               ; preds = %24
  %28 = load ptr, ptr @log_opts, align 8
  %29 = getelementptr inbounds [8192 x i8], ptr %7, i64 0, i64 0
  %30 = call i32 (ptr, ptr, ...) @pg_fprintf(ptr noundef %28, ptr noundef @.str.7, ptr noundef %29)
  br label %43

31:                                               ; preds = %24
  %32 = load i32, ptr %4, align 4
  %33 = icmp eq i32 %32, 2
  br i1 %33, label %34, label %38

34:                                               ; preds = %31
  %35 = load ptr, ptr @log_opts, align 8
  %36 = getelementptr inbounds [8192 x i8], ptr %7, i64 0, i64 0
  %37 = call i32 (ptr, ptr, ...) @pg_fprintf(ptr noundef %35, ptr noundef @.str.6, ptr noundef %36)
  br label %42

38:                                               ; preds = %31
  %39 = load ptr, ptr @log_opts, align 8
  %40 = getelementptr inbounds [8192 x i8], ptr %7, i64 0, i64 0
  %41 = call i32 (ptr, ptr, ...) @pg_fprintf(ptr noundef %39, ptr noundef @.str.8, ptr noundef %40)
  br label %42

42:                                               ; preds = %38, %34
  br label %43

43:                                               ; preds = %42, %27
  %44 = load ptr, ptr @log_opts, align 8
  %45 = call i32 @fflush(ptr noundef %44)
  br label %46

46:                                               ; preds = %43, %21, %18
  %47 = load i32, ptr %4, align 4
  switch i32 %47, label %99 [
    i32 0, label %48
    i32 1, label %55
    i32 2, label %89
    i32 3, label %92
    i32 4, label %92
    i32 5, label %95
  ]

48:                                               ; preds = %46
  %49 = load i8, ptr getelementptr inbounds nuw (%struct.LogOpts, ptr @log_opts, i32 0, i32 1), align 8, !range !4, !noundef !5
  %50 = trunc i8 %49 to i1
  br i1 %50, label %51, label %54

51:                                               ; preds = %48
  %52 = getelementptr inbounds [8192 x i8], ptr %7, i64 0, i64 0
  %53 = call i32 (ptr, ...) @pg_printf(ptr noundef @.str.8, ptr noundef %52)
  br label %54

54:                                               ; preds = %51, %48
  br label %99

55:                                               ; preds = %46
  %56 = load i8, ptr getelementptr inbounds nuw (%struct.LogOpts, ptr @log_opts, i32 0, i32 7), align 8, !range !4, !noundef !5
  %57 = trunc i8 %56 to i1
  br i1 %57, label %58, label %81

58:                                               ; preds = %55
  call void @llvm.lifetime.start.p0(i64 1, ptr %8) #8
  %59 = getelementptr inbounds [8192 x i8], ptr %7, i64 0, i64 0
  %60 = call i64 @strlen(ptr noundef %59) #9
  %61 = icmp ule i64 %60, 60
  %62 = zext i1 %61 to i8
  store i8 %62, ptr %8, align 1
  %63 = load i8, ptr %8, align 1, !range !4, !noundef !5
  %64 = trunc i8 %63 to i1
  %65 = select i1 %64, ptr @.str.2, ptr @.str.10
  %66 = load i8, ptr %8, align 1, !range !4, !noundef !5
  %67 = trunc i8 %66 to i1
  br i1 %67, label %68, label %70

68:                                               ; preds = %58
  %69 = getelementptr inbounds [8192 x i8], ptr %7, i64 0, i64 0
  br label %78

70:                                               ; preds = %58
  %71 = getelementptr inbounds [8192 x i8], ptr %7, i64 0, i64 0
  %72 = getelementptr inbounds [8192 x i8], ptr %7, i64 0, i64 0
  %73 = call i64 @strlen(ptr noundef %72) #9
  %74 = getelementptr inbounds nuw i8, ptr %71, i64 %73
  %75 = getelementptr inbounds i8, ptr %74, i64 -62
  %76 = getelementptr inbounds i8, ptr %75, i64 3
  %77 = getelementptr inbounds i8, ptr %76, i64 2
  br label %78

78:                                               ; preds = %70, %68
  %79 = phi ptr [ %69, %68 ], [ %77, %70 ]
  %80 = call i32 (ptr, ...) @pg_printf(ptr noundef @.str.9, ptr noundef %65, i32 noundef 60, i32 noundef 60, ptr noundef %79)
  call void @llvm.lifetime.end.p0(i64 1, ptr %8) #8
  br label %88

81:                                               ; preds = %55
  %82 = load i8, ptr getelementptr inbounds nuw (%struct.LogOpts, ptr @log_opts, i32 0, i32 1), align 8, !range !4, !noundef !5
  %83 = trunc i8 %82 to i1
  br i1 %83, label %84, label %87

84:                                               ; preds = %81
  %85 = getelementptr inbounds [8192 x i8], ptr %7, i64 0, i64 0
  %86 = call i32 (ptr, ...) @pg_printf(ptr noundef @.str.7, ptr noundef %85)
  br label %87

87:                                               ; preds = %84, %81
  br label %88

88:                                               ; preds = %87, %78
  br label %99

89:                                               ; preds = %46
  %90 = getelementptr inbounds [8192 x i8], ptr %7, i64 0, i64 0
  %91 = call i32 (ptr, ...) @pg_printf(ptr noundef @.str.6, ptr noundef %90)
  br label %99

92:                                               ; preds = %46, %46
  %93 = getelementptr inbounds [8192 x i8], ptr %7, i64 0, i64 0
  %94 = call i32 (ptr, ...) @pg_printf(ptr noundef @.str.8, ptr noundef %93)
  br label %99

95:                                               ; preds = %46
  %96 = getelementptr inbounds [8192 x i8], ptr %7, i64 0, i64 0
  %97 = call i32 (ptr, ...) @pg_printf(ptr noundef @.str.11, ptr noundef %96)
  %98 = call i32 (ptr, ...) @pg_printf(ptr noundef @.str.4)
  call void @exit(i32 noundef 1) #10
  unreachable

99:                                               ; preds = %46, %92, %89, %88, %54
  %100 = load ptr, ptr @stdout, align 8
  %101 = call i32 @fflush(ptr noundef %100)
  call void @llvm.lifetime.end.p0(i64 8192, ptr %7) #8
  ret void
}