; Function Attrs: nounwind uwtable
define internal fastcc void @pg_log_v(i32 noundef %0, ptr noundef %1, ptr noundef nonnull %2) unnamed_addr #0 {
  %4 = alloca [8192 x i8], align 16
  call void @llvm.lifetime.start.p0(i64 8192, ptr nonnull %4) #11
  %5 = call i32 @pg_vsnprintf(ptr noundef nonnull %4, i64 noundef 8192, ptr noundef %1, ptr noundef nonnull %2) #11
  %or.cond = icmp ugt i32 %0, 1
  br i1 %or.cond, label %11, label %6

6:                                                ; preds = %3
  %7 = load i8, ptr getelementptr inbounds nuw (i8, ptr @log_opts, i64 8), align 8, !range !4, !noundef !5
  %8 = trunc nuw i8 %7 to i1
  %9 = load ptr, ptr @log_opts, align 8
  %10 = icmp ne ptr %9, null
  %or.cond3 = select i1 %8, i1 %10, i1 false
  br i1 %or.cond3, label %12, label %17

11:                                               ; preds = %3
  %.old = load ptr, ptr @log_opts, align 8
  %.old2.not = icmp eq ptr %.old, null
  br i1 %.old2.not, label %17, label %12

12:                                               ; preds = %6, %11
  %13 = phi ptr [ %9, %6 ], [ %.old, %11 ]
  %switch.selectcmp = icmp eq i32 %0, 2
  %switch.select = select i1 %switch.selectcmp, ptr @.str.6, ptr @.str.8
  %switch.selectcmp12 = icmp eq i32 %0, 1
  %switch.select13 = select i1 %switch.selectcmp12, ptr @.str.7, ptr %switch.select
  %14 = call i32 (ptr, ptr, ...) @pg_fprintf(ptr noundef nonnull %13, ptr noundef nonnull %switch.select13, ptr noundef nonnull %4) #11
  %15 = load ptr, ptr @log_opts, align 8
  %16 = call i32 @fflush(ptr noundef %15)
  br label %17

17:                                               ; preds = %12, %11, %6
  switch i32 %0, label %46 [
    i32 0, label %18
    i32 1, label %23
    i32 2, label %39
    i32 3, label %41
    i32 4, label %41
    i32 5, label %43
  ]

18:                                               ; preds = %17
  %19 = load i8, ptr getelementptr inbounds nuw (i8, ptr @log_opts, i64 8), align 8, !range !4, !noundef !5
  %20 = trunc nuw i8 %19 to i1
  br i1 %20, label %21, label %46

21:                                               ; preds = %18
  %22 = call i32 (ptr, ...) @pg_printf(ptr noundef nonnull @.str.8, ptr noundef nonnull %4) #11
  br label %46

23:                                               ; preds = %17
  %24 = load i8, ptr getelementptr inbounds nuw (i8, ptr @log_opts, i64 48), align 8, !range !4, !noundef !5
  %25 = trunc nuw i8 %24 to i1
  br i1 %25, label %26, label %34

26:                                               ; preds = %23
  %27 = call i64 @strlen(ptr noundef nonnull dereferenceable(1) %4) #12
  %28 = icmp ult i64 %27, 61
  %29 = select i1 %28, ptr @.str.2, ptr @.str.10
  %30 = getelementptr inbounds nuw i8, ptr %4, i64 %27
  %31 = getelementptr inbounds i8, ptr %30, i64 -57
  %32 = select i1 %28, ptr %4, ptr %31
  %33 = call i32 (ptr, ...) @pg_printf(ptr noundef nonnull @.str.9, ptr noundef nonnull %29, i32 noundef 60, i32 noundef 60, ptr noundef nonnull %32) #11
  br label %46

34:                                               ; preds = %23
  %35 = load i8, ptr getelementptr inbounds nuw (i8, ptr @log_opts, i64 8), align 8, !range !4, !noundef !5
  %36 = trunc nuw i8 %35 to i1
  br i1 %36, label %37, label %46

37:                                               ; preds = %34
  %38 = call i32 (ptr, ...) @pg_printf(ptr noundef nonnull @.str.7, ptr noundef nonnull %4) #11
  br label %46

39:                                               ; preds = %17
  %40 = call i32 (ptr, ...) @pg_printf(ptr noundef nonnull @.str.6, ptr noundef nonnull %4) #11
  br label %46

41:                                               ; preds = %17, %17
  %42 = call i32 (ptr, ...) @pg_printf(ptr noundef nonnull @.str.8, ptr noundef nonnull %4) #11
  br label %46

43:                                               ; preds = %17
  %44 = call i32 (ptr, ...) @pg_printf(ptr noundef nonnull @.str.11, ptr noundef nonnull %4) #11
  %45 = call i32 (ptr, ...) @pg_printf(ptr noundef nonnull @.str.4) #11
  call void @exit(i32 noundef 1) #13
  unreachable

46:                                               ; preds = %26, %37, %34, %18, %21, %41, %39, %17
  %47 = load ptr, ptr @stdout, align 8
  %48 = call i32 @fflush(ptr noundef %47)
  call void @llvm.lifetime.end.p0(i64 8192, ptr nonnull %4) #11
  ret void
}